; Function Attrs: mustprogress nofree norecurse nosync nounwind willreturn memory(none) uwtable
define hidden noundef i32 @_ZN8NodeHash8round_upEj(i32 noundef %0) local_unnamed_addr #1 align 2 {
  %2 = lshr i32 %0, 2
  %3 = add i32 %2, %0
  %4 = tail call range(i32 0, 33) i32 @llvm.ctpop.i32(i32 %3)
  %or.cond.i = icmp eq i32 %4, 1
  %5 = tail call range(i32 0, 33) i32 @llvm.ctlz.i32(i32 %3, i1 true)
  %6 = sub nuw nsw i32 32, %5
  %7 = shl nuw i32 1, %6
  %.0.i = select i1 %or.cond.i, i32 %3, i32 %7
  %8 = tail call noundef i32 @llvm.umax.i32(i32 %.0.i, i32 16)
  ret i32 %8
}